target datalayout = "e-m:e-p270:32:32-p271:32:32-p272:64:64-i64:64-i128:128-f80:128-n8:16:32:64-S128"
target triple = "x86_64-pc-linux-gnu"

; Function Attrs: nounwind uwtable
define i32 @poll_fdsetup(i32 noundef %0, ptr noundef %1, i1 noundef zeroext %2) #0 {
  %4 = alloca i32, align 4
  %5 = alloca i32, align 4
  %6 = alloca ptr, align 8
  %7 = alloca i8, align 1
  %8 = alloca ptr, align 8
  %9 = alloca i32, align 4
  store i32 %0, ptr %5, align 4
  store ptr %1, ptr %6, align 8
  %10 = zext i1 %2 to i8
  store i8 %10, ptr %7, align 1
  %11 = load i32, ptr %5, align 4
  %12 = call i32 @fs_getfilep(i32 noundef %11, ptr noundef %8)
  store i32 %12, ptr %9, align 4
  %13 = load i32, ptr %9, align 4
  %14 = icmp slt i32 %13, 0
  br i1 %14, label %15, label %17

15:                                               ; preds = %3
  %16 = load i32, ptr %9, align 4
  store i32 %16, ptr %4, align 4
  br label %23

17:                                               ; preds = %3
  %18 = load ptr, ptr %8, align 8
  %19 = load ptr, ptr %6, align 8
  %20 = load i8, ptr %7, align 1
  %21 = trunc i8 %20 to i1
  %22 = call i32 @file_poll(ptr noundef %18, ptr noundef %19, i1 noundef zeroext %21)
  store i32 %22, ptr %4, align 4
  br label %23

23:                                               ; preds = %17, %15
  %24 = load i32, ptr %4, align 4
  ret i32 %24
}