; Function Attrs: nounwind uwtable
define i32 @poll_fdsetup(i32 noundef %0, ptr noundef %1, i1 noundef zeroext %2) local_unnamed_addr #0 {
  %4 = alloca ptr, align 8
  %5 = call i32 @fs_getfilep(i32 noundef %0, ptr noundef nonnull %4) #4
  %6 = icmp slt i32 %5, 0
  br i1 %6, label %10, label %7

7:                                                ; preds = %3
  %8 = load ptr, ptr %4, align 8
  %9 = call i32 @file_poll(ptr noundef %8, ptr noundef %1, i1 noundef zeroext %2)
  br label %10

10:                                               ; preds = %3, %7
  %.0 = phi i32 [ %9, %7 ], [ %5, %3 ]
  ret i32 %.0
}